; Function Attrs: mustprogress uwtable
define dso_local void @_ZN9OutputMgr15OutputPtrResetsERSoRKSt6vectorIPK8VariableSaIS4_EE(ptr noundef nonnull align 8 dereferenceable(8) %0, ptr noundef nonnull align 8 dereferenceable(8) %1, ptr nocapture noundef nonnull readonly align 8 dereferenceable(24) %2) local_unnamed_addr #4 align 2 personality ptr @__gxx_personality_v0 {
  %4 = alloca %class.Constant, align 8
  %5 = alloca %"class.std::__cxx11::basic_string", align 8
  %6 = alloca %"class.std::allocator.0", align 1
  %7 = getelementptr inbounds i8, ptr %2, i64 8
  %8 = load ptr, ptr %7, align 8
  %9 = load ptr, ptr %2, align 8
  %.not24 = icmp eq ptr %8, %9
  br i1 %.not24, label %._crit_edge, label %.lr.ph

.lr.ph:                                           ; preds = %3, %41
  %10 = phi ptr [ %44, %41 ], [ %9, %3 ]
  %.023 = phi i64 [ %42, %41 ], [ 0, %3 ]
  %11 = getelementptr inbounds ptr, ptr %10, i64 %.023
  %12 = load ptr, ptr %11, align 8
  %13 = getelementptr inbounds i8, ptr %12, i64 96
  %14 = load i8, ptr %13, align 8
  %15 = and i8 %14, 1
  %.not = icmp eq i8 %15, 0
  br i1 %.not, label %30, label %16

16:                                               ; preds = %.lr.ph
  %17 = call noundef ptr @_Z12get_int_typev()
  call void @_ZNSaIcEC1Ev(ptr noundef nonnull align 1 dereferenceable(1) %6) #14
  invoke void @_ZNSt7__cxx1112basic_stringIcSt11char_traitsIcESaIcEEC1EPKcRKS3_(ptr noundef nonnull align 8 dereferenceable(32) %5, ptr noundef nonnull @.str.54, ptr noundef nonnull align 1 dereferenceable(1) %6)
          to label %18 unwind label %23

18:                                               ; preds = %16
  invoke void @_ZN8ConstantC1EPK4TypeRKNSt7__cxx1112basic_stringIcSt11char_traitsIcESaIcEEE(ptr noundef nonnull align 8 dereferenceable(64) %4, ptr noundef %17, ptr noundef nonnull align 8 dereferenceable(32) %5)
          to label %19 unwind label %25

19:                                               ; preds = %18
  call void @_ZNSt7__cxx1112basic_stringIcSt11char_traitsIcESaIcEED1Ev(ptr noundef nonnull align 8 dereferenceable(32) %5) #14
  call void @_ZNSaIcED1Ev(ptr noundef nonnull align 1 dereferenceable(1) %6) #14
  %20 = invoke noundef nonnull align 8 dereferenceable(24) ptr @_ZN8Variable18get_last_ctrl_varsEv()
          to label %21 unwind label %28

21:                                               ; preds = %19
  invoke void @_ZNK13ArrayVariable11output_initERSoPK10ExpressionRKSt6vectorIPK8VariableSaIS7_EEi(ptr noundef nonnull align 8 dereferenceable(288) %12, ptr noundef nonnull align 8 dereferenceable(8) %1, ptr noundef nonnull %4, ptr noundef nonnull align 8 dereferenceable(24) %20, i32 noundef 1)
          to label %22 unwind label %28

22:                                               ; preds = %21
  call void @_ZN8ConstantD1Ev(ptr noundef nonnull align 8 dereferenceable(64) %4) #14
  br label %41

23:                                               ; preds = %16
  %24 = landingpad { ptr, i32 }
          cleanup
  br label %27

25:                                               ; preds = %18
  %26 = landingpad { ptr, i32 }
          cleanup
  call void @_ZNSt7__cxx1112basic_stringIcSt11char_traitsIcESaIcEED1Ev(ptr noundef nonnull align 8 dereferenceable(32) %5) #14
  br label %27

27:                                               ; preds = %25, %23
  %.pn = phi { ptr, i32 } [ %26, %25 ], [ %24, %23 ]
  call void @_ZNSaIcED1Ev(ptr noundef nonnull align 1 dereferenceable(1) %6) #14
  br label %50

28:                                               ; preds = %21, %19
  %29 = landingpad { ptr, i32 }
          cleanup
  call void @_ZN8ConstantD1Ev(ptr noundef nonnull align 8 dereferenceable(64) %4) #14
  br label %50

30:                                               ; preds = %.lr.ph
  %31 = load ptr, ptr %0, align 8
  %32 = getelementptr inbounds i8, ptr %31, i64 56
  %33 = load ptr, ptr %32, align 8
  call void %33(ptr noundef nonnull align 8 dereferenceable(8) %0, ptr noundef nonnull align 8 dereferenceable(8) %1, i32 noundef 1)
  %34 = load ptr, ptr %12, align 8
  %35 = getelementptr inbounds i8, ptr %34, i64 88
  %36 = load ptr, ptr %35, align 8
  call void %36(ptr noundef nonnull align 8 dereferenceable(200) %12, ptr noundef nonnull align 8 dereferenceable(8) %1)
  %37 = call noundef nonnull align 8 dereferenceable(8) ptr @_ZStlsISt11char_traitsIcEERSt13basic_ostreamIcT_ES5_PKc(ptr noundef nonnull align 8 dereferenceable(8) %1, ptr noundef nonnull @.str.48)
  %38 = load ptr, ptr %0, align 8
  %39 = getelementptr inbounds i8, ptr %38, i64 40
  %40 = load ptr, ptr %39, align 8
  call void %40(ptr noundef nonnull align 8 dereferenceable(8) %0, ptr noundef nonnull align 8 dereferenceable(8) %1)
  br label %41

41:                                               ; preds = %22, %30
  %42 = add nuw i64 %.023, 1
  %43 = load ptr, ptr %7, align 8
  %44 = load ptr, ptr %2, align 8
  %45 = ptrtoint ptr %43 to i64
  %46 = ptrtoint ptr %44 to i64
  %47 = sub i64 %45, %46
  %48 = ashr exact i64 %47, 3
  %49 = icmp ult i64 %42, %48
  br i1 %49, label %.lr.ph, label %._crit_edge, !llvm.loop !8

._crit_edge:                                      ; preds = %41, %3
  ret void

50:                                               ; preds = %28, %27
  %.pn21 = phi { ptr, i32 } [ %29, %28 ], [ %.pn, %27 ]
  resume { ptr, i32 } %.pn21
}